target datalayout = "e-m:e-p270:32:32-p271:32:32-p272:64:64-i64:64-i128:128-f80:128-n8:16:32:64-S128"
target triple = "x86_64-unknown-linux-gnu"

%"class.llvh::circular_raw_ostream" = type { %"class.llvh::raw_ostream.base", ptr, i8, i64, ptr, ptr, i8, ptr }
%"class.llvh::raw_ostream.base" = type <{ ptr, ptr, ptr, ptr, i32 }>

; Function Attrs: mustprogress nounwind uwtable
define linkonce_odr hidden void @_ZN4llvh20circular_raw_ostream11flushBufferEv(ptr noundef nonnull align 8 dereferenceable(96) %this) #0 comdat align 2 {
entry:
  %this.addr = alloca ptr, align 8
  store ptr %this, ptr %this.addr, align 8
  %this1 = load ptr, ptr %this.addr, align 8
  %Filled = getelementptr inbounds %"class.llvh::circular_raw_ostream", ptr %this1, i32 0, i32 6
  %0 = load i8, ptr %Filled, align 8
  %tobool = trunc i8 %0 to i1
  br i1 %tobool, label %if.then, label %if.end

if.then:                                          ; preds = %entry
  %TheStream = getelementptr inbounds %"class.llvh::circular_raw_ostream", ptr %this1, i32 0, i32 1
  %1 = load ptr, ptr %TheStream, align 8
  %Cur = getelementptr inbounds %"class.llvh::circular_raw_ostream", ptr %this1, i32 0, i32 5
  %2 = load ptr, ptr %Cur, align 8
  %BufferArray = getelementptr inbounds %"class.llvh::circular_raw_ostream", ptr %this1, i32 0, i32 4
  %3 = load ptr, ptr %BufferArray, align 8
  %BufferSize = getelementptr inbounds %"class.llvh::circular_raw_ostream", ptr %this1, i32 0, i32 3
  %4 = load i64, ptr %BufferSize, align 8
  %add.ptr = getelementptr inbounds i8, ptr %3, i64 %4
  %Cur2 = getelementptr inbounds %"class.llvh::circular_raw_ostream", ptr %this1, i32 0, i32 5
  %5 = load ptr, ptr %Cur2, align 8
  %sub.ptr.lhs.cast = ptrtoint ptr %add.ptr to i64
  %sub.ptr.rhs.cast = ptrtoint ptr %5 to i64
  %sub.ptr.sub = sub i64 %sub.ptr.lhs.cast, %sub.ptr.rhs.cast
  %call = call noundef nonnull align 8 dereferenceable(36) ptr @_ZN4llvh11raw_ostream5writeEPKcm(ptr noundef nonnull align 8 dereferenceable(36) %1, ptr noundef %2, i64 noundef %sub.ptr.sub)
  br label %if.end

if.end:                                           ; preds = %if.then, %entry
  %TheStream3 = getelementptr inbounds %"class.llvh::circular_raw_ostream", ptr %this1, i32 0, i32 1
  %6 = load ptr, ptr %TheStream3, align 8
  %BufferArray4 = getelementptr inbounds %"class.llvh::circular_raw_ostream", ptr %this1, i32 0, i32 4
  %7 = load ptr, ptr %BufferArray4, align 8
  %Cur5 = getelementptr inbounds %"class.llvh::circular_raw_ostream", ptr %this1, i32 0, i32 5
  %8 = load ptr, ptr %Cur5, align 8
  %BufferArray6 = getelementptr inbounds %"class.llvh::circular_raw_ostream", ptr %this1, i32 0, i32 4
  %9 = load ptr, ptr %BufferArray6, align 8
  %sub.ptr.lhs.cast7 = ptrtoint ptr %8 to i64
  %sub.ptr.rhs.cast8 = ptrtoint ptr %9 to i64
  %sub.ptr.sub9 = sub i64 %sub.ptr.lhs.cast7, %sub.ptr.rhs.cast8
  %call10 = call noundef nonnull align 8 dereferenceable(36) ptr @_ZN4llvh11raw_ostream5writeEPKcm(ptr noundef nonnull align 8 dereferenceable(36) %6, ptr noundef %7, i64 noundef %sub.ptr.sub9)
  %BufferArray11 = getelementptr inbounds %"class.llvh::circular_raw_ostream", ptr %this1, i32 0, i32 4
  %10 = load ptr, ptr %BufferArray11, align 8
  %Cur12 = getelementptr inbounds %"class.llvh::circular_raw_ostream", ptr %this1, i32 0, i32 5
  store ptr %10, ptr %Cur12, align 8
  %Filled13 = getelementptr inbounds %"class.llvh::circular_raw_ostream", ptr %this1, i32 0, i32 6
  store i8 0, ptr %Filled13, align 8
  ret void
}

; Function Attrs: mustprogress nounwind uwtable
define hidden void @_ZN4llvh20circular_raw_ostream21flushBufferWithBannerEv(ptr noundef nonnull align 8 dereferenceable(96) %this) #0 align 2 {
entry:
  %this.addr = alloca ptr, align 8
  store ptr %this, ptr %this.addr, align 8
  %this1 = load ptr, ptr %this.addr, align 8
  %BufferSize = getelementptr inbounds %"class.llvh::circular_raw_ostream", ptr %this1, i32 0, i32 3
  %0 = load i64, ptr %BufferSize, align 8
  %cmp = icmp ne i64 %0, 0
  br i1 %cmp, label %if.then, label %if.end

if.then:                                          ; preds = %entry
  %TheStream = getelementptr inbounds %"class.llvh::circular_raw_ostream", ptr %this1, i32 0, i32 1
  %1 = load ptr, ptr %TheStream, align 8
  %Banner = getelementptr inbounds %"class.llvh::circular_raw_ostream", ptr %this1, i32 0, i32 7
  %2 = load ptr, ptr %Banner, align 8
  %Banner2 = getelementptr inbounds %"class.llvh::circular_raw_ostream", ptr %this1, i32 0, i32 7
  %3 = load ptr, ptr %Banner2, align 8
  %call = call i64 @strlen(ptr noundef %3) #6
  %call3 = call noundef nonnull align 8 dereferenceable(36) ptr @_ZN4llvh11raw_ostream5writeEPKcm(ptr noundef nonnull align 8 dereferenceable(36) %1, ptr noundef %2, i64 noundef %call)
  call void @_ZN4llvh20circular_raw_ostream11flushBufferEv(ptr noundef nonnull align 8 dereferenceable(96) %this1)
  br label %if.end

if.end:                                           ; preds = %if.then, %entry
  ret void
}