; Function Attrs: mustprogress nounwind uwtable
define hidden void @_ZN4llvh20circular_raw_ostream21flushBufferWithBannerEv(ptr nocapture noundef nonnull align 8 dereferenceable(96) %this) local_unnamed_addr #0 align 2 {
entry:
  %BufferSize = getelementptr inbounds i8, ptr %this, i64 56
  %0 = load i64, ptr %BufferSize, align 8
  %cmp.not = icmp eq i64 %0, 0
  br i1 %cmp.not, label %if.end, label %if.then

if.then:                                          ; preds = %entry
  %TheStream = getelementptr inbounds i8, ptr %this, i64 40
  %1 = load ptr, ptr %TheStream, align 8
  %Banner = getelementptr inbounds i8, ptr %this, i64 88
  %2 = load ptr, ptr %Banner, align 8
  %call = tail call i64 @strlen(ptr noundef nonnull dereferenceable(1) %2) #8
  %call3 = tail call noundef nonnull align 8 dereferenceable(36) ptr @_ZN4llvh11raw_ostream5writeEPKcm(ptr noundef nonnull align 8 dereferenceable(36) %1, ptr noundef %2, i64 noundef %call) #7
  %Filled.i = getelementptr inbounds i8, ptr %this, i64 80
  %3 = load i8, ptr %Filled.i, align 8
  %4 = and i8 %3, 1
  %tobool.not.i = icmp eq i8 %4, 0
  br i1 %tobool.not.i, label %_ZN4llvh20circular_raw_ostream11flushBufferEv.exit, label %if.then.i

if.then.i:                                        ; preds = %if.then
  %5 = load ptr, ptr %TheStream, align 8
  %Cur.i = getelementptr inbounds i8, ptr %this, i64 72
  %6 = load ptr, ptr %Cur.i, align 8
  %BufferArray.i = getelementptr inbounds i8, ptr %this, i64 64
  %7 = load ptr, ptr %BufferArray.i, align 8
  %8 = load i64, ptr %BufferSize, align 8
  %add.ptr.i = getelementptr inbounds i8, ptr %7, i64 %8
  %sub.ptr.lhs.cast.i = ptrtoint ptr %add.ptr.i to i64
  %sub.ptr.rhs.cast.i = ptrtoint ptr %6 to i64
  %sub.ptr.sub.i = sub i64 %sub.ptr.lhs.cast.i, %sub.ptr.rhs.cast.i
  %call.i = tail call noundef nonnull align 8 dereferenceable(36) ptr @_ZN4llvh11raw_ostream5writeEPKcm(ptr noundef nonnull align 8 dereferenceable(36) %5, ptr noundef %6, i64 noundef %sub.ptr.sub.i) #7
  br label %_ZN4llvh20circular_raw_ostream11flushBufferEv.exit

_ZN4llvh20circular_raw_ostream11flushBufferEv.exit: ; preds = %if.then, %if.then.i
  %9 = load ptr, ptr %TheStream, align 8
  %BufferArray4.i = getelementptr inbounds i8, ptr %this, i64 64
  %10 = load ptr, ptr %BufferArray4.i, align 8
  %Cur5.i = getelementptr inbounds i8, ptr %this, i64 72
  %11 = load ptr, ptr %Cur5.i, align 8
  %sub.ptr.lhs.cast7.i = ptrtoint ptr %11 to i64
  %sub.ptr.rhs.cast8.i = ptrtoint ptr %10 to i64
  %sub.ptr.sub9.i = sub i64 %sub.ptr.lhs.cast7.i, %sub.ptr.rhs.cast8.i
  %call10.i = tail call noundef nonnull align 8 dereferenceable(36) ptr @_ZN4llvh11raw_ostream5writeEPKcm(ptr noundef nonnull align 8 dereferenceable(36) %9, ptr noundef %10, i64 noundef %sub.ptr.sub9.i) #7
  %12 = load ptr, ptr %BufferArray4.i, align 8
  store ptr %12, ptr %Cur5.i, align 8
  store i8 0, ptr %Filled.i, align 8
  br label %if.end

if.end:                                           ; preds = %_ZN4llvh20circular_raw_ostream11flushBufferEv.exit, %entry
  ret void
}